target datalayout = "e-m:e-p270:32:32-p271:32:32-p272:64:64-i64:64-i128:128-f80:128-n8:16:32:64-S128"
target triple = "x86_64-pc-linux-gnu"

; Function Attrs: nounwind uwtable
define internal void @Float32_To_Int32(ptr noundef %0, i32 noundef %1, ptr noundef %2, i32 noundef %3, i32 noundef %4, ptr noundef %5) #0 {
  %7 = alloca ptr, align 8
  %8 = alloca i32, align 4
  %9 = alloca ptr, align 8
  %10 = alloca i32, align 4
  %11 = alloca i32, align 4
  %12 = alloca ptr, align 8
  %13 = alloca ptr, align 8
  %14 = alloca ptr, align 8
  %15 = alloca double, align 8
  store ptr %0, ptr %7, align 8, !tbaa !70
  store i32 %1, ptr %8, align 4, !tbaa !71
  store ptr %2, ptr %9, align 8, !tbaa !70
  store i32 %3, ptr %10, align 4, !tbaa !71
  store i32 %4, ptr %11, align 4, !tbaa !71
  store ptr %5, ptr %12, align 8, !tbaa !73
  call void @llvm.lifetime.start.p0(i64 8, ptr %13) #4
  %16 = load ptr, ptr %9, align 8, !tbaa !70
  store ptr %16, ptr %13, align 8, !tbaa !75
  call void @llvm.lifetime.start.p0(i64 8, ptr %14) #4
  %17 = load ptr, ptr %7, align 8, !tbaa !70
  store ptr %17, ptr %14, align 8, !tbaa !77
  br label %18

18:                                               ; preds = %22, %6
  %19 = load i32, ptr %11, align 4, !tbaa !71
  %20 = add i32 %19, -1
  store i32 %20, ptr %11, align 4, !tbaa !71
  %21 = icmp ne i32 %19, 0
  br i1 %21, label %22, label %38

22:                                               ; preds = %18
  call void @llvm.lifetime.start.p0(i64 8, ptr %15) #4
  %23 = load ptr, ptr %13, align 8, !tbaa !75
  %24 = load float, ptr %23, align 4, !tbaa !79
  %25 = fmul float %24, 0x41E0000000000000
  %26 = fpext float %25 to double
  store double %26, ptr %15, align 8, !tbaa !81
  %27 = load double, ptr %15, align 8, !tbaa !81
  %28 = fptosi double %27 to i32
  %29 = load ptr, ptr %14, align 8, !tbaa !77
  store i32 %28, ptr %29, align 4, !tbaa !71
  %30 = load i32, ptr %10, align 4, !tbaa !71
  %31 = load ptr, ptr %13, align 8, !tbaa !75
  %32 = sext i32 %30 to i64
  %33 = getelementptr inbounds float, ptr %31, i64 %32
  store ptr %33, ptr %13, align 8, !tbaa !75
  %34 = load i32, ptr %8, align 4, !tbaa !71
  %35 = load ptr, ptr %14, align 8, !tbaa !77
  %36 = sext i32 %34 to i64
  %37 = getelementptr inbounds i32, ptr %35, i64 %36
  store ptr %37, ptr %14, align 8, !tbaa !77
  call void @llvm.lifetime.end.p0(i64 8, ptr %15) #4
  br label %18, !llvm.loop !83

38:                                               ; preds = %18
  call void @llvm.lifetime.end.p0(i64 8, ptr %14) #4
  call void @llvm.lifetime.end.p0(i64 8, ptr %13) #4
  ret void
}